; ModuleID = '57/1431.c'
source_filename = "57/1431.c"
target datalayout = "e-m:e-p270:32:32-p271:32:32-p272:64:64-i64:64-f80:128-n8:16:32:64-S128"
target triple = "x86_64-pc-linux-gnu"

@.str = private unnamed_addr constant [3 x i8] c"%d\00", align 1
@.str.1 = private unnamed_addr constant [3 x i8] c"%s\00", align 1
@.str.2 = private unnamed_addr constant [4 x i8] c"%s\0A\00", align 1

; Function Attrs: noinline nounwind uwtable
define dso_local i32 @main() #0 {
  %1 = alloca i32, align 4
  %2 = alloca i32, align 4
  %3 = alloca i32, align 4
  %4 = alloca i32, align 4
  %5 = alloca [400 x [400 x i8]], align 16
  %6 = alloca [400 x [400 x i8]], align 16
  %7 = alloca i32, align 4
  store i32 0, i32* %1, align 4
  %8 = call i32 (i8*, ...) @__isoc99_scanf(i8* getelementptr inbounds ([3 x i8], [3 x i8]* @.str, i64 0, i64 0), i32* %4)
  store i32 1, i32* %3, align 4
  br label %9

9:                                                ; preds = %166, %0
  %10 = load i32, i32* %3, align 4
  %11 = load i32, i32* %4, align 4
  %12 = icmp sle i32 %10, %11
  br i1 %12, label %13, label %169

13:                                               ; preds = %9
  %14 = load i32, i32* %3, align 4
  %15 = sext i32 %14 to i64
  %16 = getelementptr inbounds [400 x [400 x i8]], [400 x [400 x i8]]* %5, i64 0, i64 %15
  %17 = call i32 (i8*, ...) @__isoc99_scanf(i8* getelementptr inbounds ([3 x i8], [3 x i8]* @.str.1, i64 0, i64 0), [400 x i8]* %16)
  %18 = load i32, i32* %3, align 4
  %19 = sext i32 %18 to i64
  %20 = getelementptr inbounds [400 x [400 x i8]], [400 x [400 x i8]]* %5, i64 0, i64 %19
  %21 = getelementptr inbounds [400 x i8], [400 x i8]* %20, i64 0, i64 0
  %22 = call i64 @strlen(i8* %21) #3
  %23 = trunc i64 %22 to i32
  store i32 %23, i32* %7, align 4
  %24 = load i32, i32* %3, align 4
  %25 = sext i32 %24 to i64
  %26 = getelementptr inbounds [400 x [400 x i8]], [400 x [400 x i8]]* %5, i64 0, i64 %25
  %27 = load i32, i32* %7, align 4
  %28 = sub nsw i32 %27, 2
  %29 = sext i32 %28 to i64
  %30 = getelementptr inbounds [400 x i8], [400 x i8]* %26, i64 0, i64 %29
  %31 = load i8, i8* %30, align 1
  %32 = sext i8 %31 to i32
  %33 = icmp eq i32 %32, 101
  br i1 %33, label %34, label %45

34:                                               ; preds = %13
  %35 = load i32, i32* %3, align 4
  %36 = sext i32 %35 to i64
  %37 = getelementptr inbounds [400 x [400 x i8]], [400 x [400 x i8]]* %5, i64 0, i64 %36
  %38 = load i32, i32* %7, align 4
  %39 = sub nsw i32 %38, 1
  %40 = sext i32 %39 to i64
  %41 = getelementptr inbounds [400 x i8], [400 x i8]* %37, i64 0, i64 %40
  %42 = load i8, i8* %41, align 1
  %43 = sext i8 %42 to i32
  %44 = icmp eq i32 %43, 114
  br i1 %44, label %67, label %45

45:                                               ; preds = %34, %13
  %46 = load i32, i32* %3, align 4
  %47 = sext i32 %46 to i64
  %48 = getelementptr inbounds [400 x [400 x i8]], [400 x [400 x i8]]* %5, i64 0, i64 %47
  %49 = load i32, i32* %7, align 4
  %50 = sub nsw i32 %49, 2
  %51 = sext i32 %50 to i64
  %52 = getelementptr inbounds [400 x i8], [400 x i8]* %48, i64 0, i64 %51
  %53 = load i8, i8* %52, align 1
  %54 = sext i8 %53 to i32
  %55 = icmp eq i32 %54, 108
  br i1 %55, label %56, label %96

56:                                               ; preds = %45
  %57 = load i32, i32* %3, align 4
  %58 = sext i32 %57 to i64
  %59 = getelementptr inbounds [400 x [400 x i8]], [400 x [400 x i8]]* %5, i64 0, i64 %58
  %60 = load i32, i32* %7, align 4
  %61 = sub nsw i32 %60, 1
  %62 = sext i32 %61 to i64
  %63 = getelementptr inbounds [400 x i8], [400 x i8]* %59, i64 0, i64 %62
  %64 = load i8, i8* %63, align 1
  %65 = sext i8 %64 to i32
  %66 = icmp eq i32 %65, 121
  br i1 %66, label %67, label %96

67:                                               ; preds = %56, %34
  store i32 0, i32* %2, align 4
  br label %68

68:                                               ; preds = %87, %67
  %69 = load i32, i32* %2, align 4
  %70 = load i32, i32* %7, align 4
  %71 = sub nsw i32 %70, 2
  %72 = icmp slt i32 %69, %71
  br i1 %72, label %73, label %90

73:                                               ; preds = %68
  %74 = load i32, i32* %3, align 4
  %75 = sext i32 %74 to i64
  %76 = getelementptr inbounds [400 x [400 x i8]], [400 x [400 x i8]]* %5, i64 0, i64 %75
  %77 = load i32, i32* %2, align 4
  %78 = sext i32 %77 to i64
  %79 = getelementptr inbounds [400 x i8], [400 x i8]* %76, i64 0, i64 %78
  %80 = load i8, i8* %79, align 1
  %81 = load i32, i32* %3, align 4
  %82 = sext i32 %81 to i64
  %83 = getelementptr inbounds [400 x [400 x i8]], [400 x [400 x i8]]* %6, i64 0, i64 %82
  %84 = load i32, i32* %2, align 4
  %85 = sext i32 %84 to i64
  %86 = getelementptr inbounds [400 x i8], [400 x i8]* %83, i64 0, i64 %85
  store i8 %80, i8* %86, align 1
  br label %87

87:                                               ; preds = %73
  %88 = load i32, i32* %2, align 4
  %89 = add nsw i32 %88, 1
  store i32 %89, i32* %2, align 4
  br label %68

90:                                               ; preds = %68
  %91 = load i32, i32* %3, align 4
  %92 = sext i32 %91 to i64
  %93 = getelementptr inbounds [400 x [400 x i8]], [400 x [400 x i8]]* %6, i64 0, i64 %92
  %94 = getelementptr inbounds [400 x i8], [400 x i8]* %93, i64 0, i64 0
  %95 = call i32 @puts(i8* %94)
  br label %165

96:                                               ; preds = %56, %45
  %97 = load i32, i32* %3, align 4
  %98 = sext i32 %97 to i64
  %99 = getelementptr inbounds [400 x [400 x i8]], [400 x [400 x i8]]* %5, i64 0, i64 %98
  %100 = load i32, i32* %7, align 4
  %101 = sub nsw i32 %100, 3
  %102 = sext i32 %101 to i64
  %103 = getelementptr inbounds [400 x i8], [400 x i8]* %99, i64 0, i64 %102
  %104 = load i8, i8* %103, align 1
  %105 = sext i8 %104 to i32
  %106 = icmp eq i32 %105, 105
  br i1 %106, label %107, label %158

107:                                              ; preds = %96
  %108 = load i32, i32* %3, align 4
  %109 = sext i32 %108 to i64
  %110 = getelementptr inbounds [400 x [400 x i8]], [400 x [400 x i8]]* %5, i64 0, i64 %109
  %111 = load i32, i32* %7, align 4
  %112 = sub nsw i32 %111, 2
  %113 = sext i32 %112 to i64
  %114 = getelementptr inbounds [400 x i8], [400 x i8]* %110, i64 0, i64 %113
  %115 = load i8, i8* %114, align 1
  %116 = sext i8 %115 to i32
  %117 = icmp eq i32 %116, 110
  br i1 %117, label %118, label %158

118:                                              ; preds = %107
  %119 = load i32, i32* %3, align 4
  %120 = sext i32 %119 to i64
  %121 = getelementptr inbounds [400 x [400 x i8]], [400 x [400 x i8]]* %5, i64 0, i64 %120
  %122 = load i32, i32* %7, align 4
  %123 = sub nsw i32 %122, 1
  %124 = sext i32 %123 to i64
  %125 = getelementptr inbounds [400 x i8], [400 x i8]* %121, i64 0, i64 %124
  %126 = load i8, i8* %125, align 1
  %127 = sext i8 %126 to i32
  %128 = icmp eq i32 %127, 103
  br i1 %128, label %129, label %158

129:                                              ; preds = %118
  store i32 0, i32* %2, align 4
  br label %130

130:                                              ; preds = %149, %129
  %131 = load i32, i32* %2, align 4
  %132 = load i32, i32* %7, align 4
  %133 = sub nsw i32 %132, 3
  %134 = icmp slt i32 %131, %133
  br i1 %134, label %135, label %152

135:                                              ; preds = %130
  %136 = load i32, i32* %3, align 4
  %137 = sext i32 %136 to i64
  %138 = getelementptr inbounds [400 x [400 x i8]], [400 x [400 x i8]]* %5, i64 0, i64 %137
  %139 = load i32, i32* %2, align 4
  %140 = sext i32 %139 to i64
  %141 = getelementptr inbounds [400 x i8], [400 x i8]* %138, i64 0, i64 %140
  %142 = load i8, i8* %141, align 1
  %143 = load i32, i32* %3, align 4
  %144 = sext i32 %143 to i64
  %145 = getelementptr inbounds [400 x [400 x i8]], [400 x [400 x i8]]* %6, i64 0, i64 %144
  %146 = load i32, i32* %2, align 4
  %147 = sext i32 %146 to i64
  %148 = getelementptr inbounds [400 x i8], [400 x i8]* %145, i64 0, i64 %147
  store i8 %142, i8* %148, align 1
  br label %149

149:                                              ; preds = %135
  %150 = load i32, i32* %2, align 4
  %151 = add nsw i32 %150, 1
  store i32 %151, i32* %2, align 4
  br label %130

152:                                              ; preds = %130
  %153 = load i32, i32* %3, align 4
  %154 = sext i32 %153 to i64
  %155 = getelementptr inbounds [400 x [400 x i8]], [400 x [400 x i8]]* %6, i64 0, i64 %154
  %156 = getelementptr inbounds [400 x i8], [400 x i8]* %155, i64 0, i64 0
  %157 = call i32 @puts(i8* %156)
  br label %164

158:                                              ; preds = %118, %107, %96
  %159 = load i32, i32* %3, align 4
  %160 = sext i32 %159 to i64
  %161 = getelementptr inbounds [400 x [400 x i8]], [400 x [400 x i8]]* %5, i64 0, i64 %160
  %162 = getelementptr inbounds [400 x i8], [400 x i8]* %161, i64 0, i64 0
  %163 = call i32 (i8*, ...) @printf(i8* getelementptr inbounds ([4 x i8], [4 x i8]* @.str.2, i64 0, i64 0), i8* %162)
  br label %164

164:                                              ; preds = %158, %152
  br label %165

165:                                              ; preds = %164, %90
  br label %166

166:                                              ; preds = %165
  %167 = load i32, i32* %3, align 4
  %168 = add nsw i32 %167, 1
  store i32 %168, i32* %3, align 4
  br label %9

169:                                              ; preds = %9
  ret i32 0
}

declare dso_local i32 @__isoc99_scanf(i8*, ...) #1

; Function Attrs: nounwind readonly
declare dso_local i64 @strlen(i8*) #2

declare dso_local i32 @puts(i8*) #1

declare dso_local i32 @printf(i8*, ...) #1


!llvm.module.flags = !{!0}
!llvm.ident = !{!1}

!0 = !{i32 1, !"wchar_size", i32 4}
!1 = !{!"clang version 10.0.0-4ubuntu1 "}
